target datalayout = "e-m:e-p270:32:32-p271:32:32-p272:64:64-i64:64-i128:128-f80:128-n8:16:32:64-S128"
target triple = "x86_64-unknown-linux-gnu"

%struct.QemuMutex = type { %union.pthread_mutex_t, i8 }
%union.pthread_mutex_t = type { %struct.__pthread_mutex_s }
%struct.__pthread_mutex_s = type { i32, i32, i32, i32, i32, i16, i16, %struct.__pthread_internal_list }
%struct.__pthread_internal_list = type { ptr, ptr }
%struct.QTailQLink = type { ptr, ptr }
%struct.QemuLockable = type { ptr, ptr, ptr }
%struct.MonitorHMP = type { %struct.Monitor, i8, ptr }
%struct.Monitor = type { %struct.CharBackend, i32, i8, i8, i8, ptr, %union.anon, %struct.QemuMutex, %struct.anon.0, ptr, i32, i32, i32 }
%struct.CharBackend = type { ptr, ptr, ptr, ptr, ptr, ptr, i32, i32 }
%union.anon = type { %struct.QTailQLink }
%struct.anon.0 = type { ptr }
%struct._GString = type { ptr, i64, i64 }

@.str = private unnamed_addr constant [27 x i8] c"../qemu/monitor/qmp-cmds.c\00", align 1
@__func__.qmp_human_monitor_command = private unnamed_addr constant [26 x i8] c"qmp_human_monitor_command\00", align 1
@.str.8 = private unnamed_addr constant [26 x i8] c"Parameter '%s' expects %s\00", align 1
@.str.9 = private unnamed_addr constant [10 x i8] c"cpu-index\00", align 1
@.str.10 = private unnamed_addr constant [13 x i8] c"a CPU number\00", align 1

; Function Attrs: nounwind sspstrong uwtable
define internal void @qemu_lockable_unlock(ptr noundef %x) #0 {
entry:
  %x.addr = alloca ptr, align 8
  store ptr %x, ptr %x.addr, align 8
  %0 = load ptr, ptr %x.addr, align 8
  %unlock = getelementptr inbounds %struct.QemuLockable, ptr %0, i32 0, i32 2
  %1 = load ptr, ptr %unlock, align 8
  %2 = load ptr, ptr %x.addr, align 8
  %object = getelementptr inbounds %struct.QemuLockable, ptr %2, i32 0, i32 0
  %3 = load ptr, ptr %object, align 8
  call void %1(ptr noundef %3)
  ret void
}

; Function Attrs: nounwind sspstrong uwtable
define internal void @glib_autoptr_clear_QemuLockable(ptr noundef %_ptr) #0 {
entry:
  %_ptr.addr = alloca ptr, align 8
  store ptr %_ptr, ptr %_ptr.addr, align 8
  %0 = load ptr, ptr %_ptr.addr, align 8
  %tobool = icmp ne ptr %0, null
  br i1 %tobool, label %if.then, label %if.end

if.then:                                          ; preds = %entry
  %1 = load ptr, ptr %_ptr.addr, align 8
  call void @qemu_lockable_auto_unlock(ptr noundef %1)
  br label %if.end

if.end:                                           ; preds = %if.then, %entry
  ret void
}

; Function Attrs: nounwind sspstrong uwtable
define internal void @qemu_lockable_lock(ptr noundef %x) #0 {
entry:
  %x.addr = alloca ptr, align 8
  store ptr %x, ptr %x.addr, align 8
  %0 = load ptr, ptr %x.addr, align 8
  %lock = getelementptr inbounds %struct.QemuLockable, ptr %0, i32 0, i32 1
  %1 = load ptr, ptr %lock, align 8
  %2 = load ptr, ptr %x.addr, align 8
  %object = getelementptr inbounds %struct.QemuLockable, ptr %2, i32 0, i32 0
  %3 = load ptr, ptr %object, align 8
  call void %1(ptr noundef %3)
  ret void
}

; Function Attrs: nounwind sspstrong uwtable
define internal void @qemu_lockable_auto_unlock(ptr noundef %x) #0 {
entry:
  %x.addr = alloca ptr, align 8
  store ptr %x, ptr %x.addr, align 8
  %0 = load ptr, ptr %x.addr, align 8
  %tobool = icmp ne ptr %0, null
  br i1 %tobool, label %if.then, label %if.end

if.then:                                          ; preds = %entry
  %1 = load ptr, ptr %x.addr, align 8
  call void @qemu_lockable_unlock(ptr noundef %1)
  br label %if.end

if.end:                                           ; preds = %if.then, %entry
  ret void
}

; Function Attrs: nounwind sspstrong uwtable
define internal void @glib_autoptr_cleanup_QemuLockable(ptr noundef %_ptr) #0 {
entry:
  %_ptr.addr = alloca ptr, align 8
  store ptr %_ptr, ptr %_ptr.addr, align 8
  %0 = load ptr, ptr %_ptr.addr, align 8
  %1 = load ptr, ptr %0, align 8
  call void @glib_autoptr_clear_QemuLockable(ptr noundef %1)
  ret void
}

; Function Attrs: nounwind sspstrong uwtable
define internal ptr @qemu_lockable_auto_lock(ptr noundef %x) #0 {
entry:
  %x.addr = alloca ptr, align 8
  store ptr %x, ptr %x.addr, align 8
  %0 = load ptr, ptr %x.addr, align 8
  call void @qemu_lockable_lock(ptr noundef %0)
  %1 = load ptr, ptr %x.addr, align 8
  ret ptr %1
}

; Function Attrs: nounwind sspstrong uwtable
define dso_local ptr @qmp_human_monitor_command(ptr noundef %command_line, i1 noundef zeroext %has_cpu_index, i64 noundef %cpu_index, ptr noundef %errp) #0 {
entry:
  %command_line.addr = alloca ptr, align 8
  %has_cpu_index.addr = alloca i8, align 1
  %cpu_index.addr = alloca i64, align 8
  %errp.addr = alloca ptr, align 8
  %output = alloca ptr, align 8
  %hmp = alloca %struct.MonitorHMP, align 8
  %ret = alloca i32, align 4
  %qemu_lockable_auto5 = alloca ptr, align 8
  %.compoundliteral = alloca %struct.QemuLockable, align 8
  store ptr %command_line, ptr %command_line.addr, align 8
  %frombool = zext i1 %has_cpu_index to i8
  store i8 %frombool, ptr %has_cpu_index.addr, align 1
  store i64 %cpu_index, ptr %cpu_index.addr, align 8
  store ptr %errp, ptr %errp.addr, align 8
  store ptr null, ptr %output, align 8
  call void @llvm.memset.p0.i64(ptr align 8 %hmp, i8 0, i64 184, i1 false)
  %common = getelementptr inbounds %struct.MonitorHMP, ptr %hmp, i32 0, i32 0
  call void @monitor_data_init(ptr noundef %common, i1 noundef zeroext false, i1 noundef zeroext true, i1 noundef zeroext false)
  %0 = load i8, ptr %has_cpu_index.addr, align 1
  %tobool = trunc i8 %0 to i1
  br i1 %tobool, label %if.then, label %if.end4

if.then:                                          ; preds = %entry
  %common1 = getelementptr inbounds %struct.MonitorHMP, ptr %hmp, i32 0, i32 0
  %1 = load i64, ptr %cpu_index.addr, align 8
  %conv = trunc i64 %1 to i32
  %call = call i32 @monitor_set_cpu(ptr noundef %common1, i32 noundef %conv)
  store i32 %call, ptr %ret, align 4
  %2 = load i32, ptr %ret, align 4
  %cmp = icmp slt i32 %2, 0
  br i1 %cmp, label %if.then3, label %if.end

if.then3:                                         ; preds = %if.then
  %3 = load ptr, ptr %errp.addr, align 8
  call void (ptr, ptr, i32, ptr, ptr, ...) @error_setg_internal(ptr noundef %3, ptr noundef @.str, i32 noundef 177, ptr noundef @__func__.qmp_human_monitor_command, ptr noundef @.str.8, ptr noundef @.str.9, ptr noundef @.str.10)
  br label %out

if.end:                                           ; preds = %if.then
  br label %if.end4

if.end4:                                          ; preds = %if.end, %entry
  %4 = load ptr, ptr %command_line.addr, align 8
  call void @handle_hmp_command(ptr noundef %hmp, ptr noundef %4)
  %object = getelementptr inbounds %struct.QemuLockable, ptr %.compoundliteral, i32 0, i32 0
  %common5 = getelementptr inbounds %struct.MonitorHMP, ptr %hmp, i32 0, i32 0
  %mon_lock = getelementptr inbounds %struct.Monitor, ptr %common5, i32 0, i32 7
  store ptr %mon_lock, ptr %object, align 8
  %lock = getelementptr inbounds %struct.QemuLockable, ptr %.compoundliteral, i32 0, i32 1
  store ptr @qemu_mutex_lock, ptr %lock, align 8
  %unlock = getelementptr inbounds %struct.QemuLockable, ptr %.compoundliteral, i32 0, i32 2
  store ptr @qemu_mutex_unlock, ptr %unlock, align 8
  %call6 = call ptr @qemu_lockable_auto_lock(ptr noundef %.compoundliteral)
  store ptr %call6, ptr %qemu_lockable_auto5, align 8
  br label %for.cond

for.cond:                                         ; preds = %for.inc, %if.end4
  %5 = load ptr, ptr %qemu_lockable_auto5, align 8
  %tobool7 = icmp ne ptr %5, null
  br i1 %tobool7, label %for.body, label %for.cond.cleanup

for.cond.cleanup:                                 ; preds = %for.cond
  call void @glib_autoptr_cleanup_QemuLockable(ptr noundef %qemu_lockable_auto5)
  br label %for.end

for.body:                                         ; preds = %for.cond
  %common8 = getelementptr inbounds %struct.MonitorHMP, ptr %hmp, i32 0, i32 0
  %outbuf = getelementptr inbounds %struct.Monitor, ptr %common8, i32 0, i32 9
  %6 = load ptr, ptr %outbuf, align 8
  %str = getelementptr inbounds %struct._GString, ptr %6, i32 0, i32 0
  %7 = load ptr, ptr %str, align 8
  %call9 = call noalias ptr @g_strdup(ptr noundef %7)
  store ptr %call9, ptr %output, align 8
  br label %for.inc

for.inc:                                          ; preds = %for.body
  %8 = load ptr, ptr %qemu_lockable_auto5, align 8
  call void @qemu_lockable_auto_unlock(ptr noundef %8)
  store ptr null, ptr %qemu_lockable_auto5, align 8
  br label %for.cond, !llvm.loop !10

for.end:                                          ; preds = %for.cond.cleanup
  br label %out

out:                                              ; preds = %for.end, %if.then3
  %common10 = getelementptr inbounds %struct.MonitorHMP, ptr %hmp, i32 0, i32 0
  call void @monitor_data_destroy(ptr noundef %common10)
  %9 = load ptr, ptr %output, align 8
  ret ptr %9
}