; Function Attrs: nounwind sspstrong uwtable
define dso_local noalias ptr @qmp_human_monitor_command(ptr noundef %command_line, i1 noundef zeroext %has_cpu_index, i64 noundef %cpu_index, ptr noundef %errp) local_unnamed_addr #0 {
entry:
  %hmp = alloca %struct.MonitorHMP, align 8
  call void @llvm.memset.p0.i64(ptr noundef nonnull align 8 dereferenceable(184) %hmp, i8 0, i64 184, i1 false)
  call void @monitor_data_init(ptr noundef nonnull %hmp, i1 noundef zeroext false, i1 noundef zeroext true, i1 noundef zeroext false) #6
  br i1 %has_cpu_index, label %if.then, label %qemu_lockable_auto_unlock.exit.us

if.then:                                          ; preds = %entry
  %conv = trunc i64 %cpu_index to i32
  %call = call i32 @monitor_set_cpu(ptr noundef nonnull %hmp, i32 noundef %conv) #6
  %cmp = icmp slt i32 %call, 0
  br i1 %cmp, label %if.then3, label %qemu_lockable_auto_unlock.exit.us

if.then3:                                         ; preds = %if.then
  call void (ptr, ptr, i32, ptr, ptr, ...) @error_setg_internal(ptr noundef %errp, ptr noundef nonnull @.str, i32 noundef 177, ptr noundef nonnull @__func__.qmp_human_monitor_command, ptr noundef nonnull @.str.8, ptr noundef nonnull @.str.9, ptr noundef nonnull @.str.10) #6
  br label %out

qemu_lockable_auto_unlock.exit.us:                ; preds = %entry, %if.then
  call void @handle_hmp_command(ptr noundef nonnull %hmp, ptr noundef %command_line) #6
  %mon_lock = getelementptr inbounds nuw i8, ptr %hmp, i64 88
  %0 = load atomic i64, ptr @qemu_mutex_lock_func monotonic, align 8
  %1 = inttoptr i64 %0 to ptr
  call void %1(ptr noundef nonnull %mon_lock, ptr noundef nonnull @.str.13, i32 noundef 122) #6
  %outbuf = getelementptr inbounds nuw i8, ptr %hmp, i64 144
  %2 = load ptr, ptr %outbuf, align 8
  %3 = load ptr, ptr %2, align 8
  %call9.us = call noalias ptr @g_strdup(ptr noundef %3) #6
  call void @qemu_mutex_unlock_impl(ptr noundef nonnull %mon_lock, ptr noundef nonnull @.str.13, i32 noundef 132) #6
  br label %out

out:                                              ; preds = %qemu_lockable_auto_unlock.exit.us, %if.then3
  %output.0 = phi ptr [ null, %if.then3 ], [ %call9.us, %qemu_lockable_auto_unlock.exit.us ]
  call void @monitor_data_destroy(ptr noundef nonnull %hmp) #6
  ret ptr %output.0
}